(dp0
S'test'
p1
(dp2
S'P079/Sadness/016.jpeg'
p3
I4
sS'P076/Fear/021.jpeg'
p4
I2
sS'P077/Surprise/014.jpeg'
p5
I5
sS'P077/Surprise/016.jpeg'
p6
I5
sS'P078/Surprise/016.jpeg'
p7
I5
sS'P075/Fear/024.jpeg'
p8
I2
sS'P079/Surprise/017.jpeg'
p9
I5
sS'P078/Anger/020.jpeg'
p10
I0
sS'P080/Anger/025.jpeg'
p11
I0
sS'P074/Happiness/020.jpeg'
p12
I3
sS'P073/Happiness/021.jpeg'
p13
I3
sS'P079/Sadness/017.jpeg'
p14
I4
sS'P078/Surprise/017.jpeg'
p15
I5
sS'P073/Disgust/024.jpeg'
p16
I1
sS'P079/Fear/024.jpeg'
p17
I2
sS'P073/Fear/020.jpeg'
p18
I2
sS'P073/Sadness/016.jpeg'
p19
I4
sS'P075/Sadness/017.jpeg'
p20
I4
sS'P080/Happiness/029.jpeg'
p21
I3
sS'P078/Sadness/017.jpeg'
p22
I4
sS'P076/Fear/020.jpeg'
p23
I2
sS'P078/Sadness/019.jpeg'
p24
I4
sS'P074/Fear/021.jpeg'
p25
I2
sS'P080/Fear/021.jpeg'
p26
I2
sS'P073/Surprise/022.jpeg'
p27
I5
sS'P076/Surprise/023.jpeg'
p28
I5
sS'P074/Happiness/019.jpeg'
p29
I3
sS'P073/Happiness/022.jpeg'
p30
I3
sS'P076/Happiness/019.jpeg'
p31
I3
sS'P080/Fear/019.jpeg'
p32
I2
sS'P073/Happiness/020.jpeg'
p33
I3
sS'P078/Surprise/018.jpeg'
p34
I5
sS'P080/Sadness/018.jpeg'
p35
I4
sS'P073/Fear/019.jpeg'
p36
I2
sS'P074/Surprise/022.jpeg'
p37
I5
sS'P074/Surprise/021.jpeg'
p38
I5
sS'P078/Disgust/017.jpeg'
p39
I1
sS'P076/Anger/017.jpeg'
p40
I0
sS'P076/Anger/019.jpeg'
p41
I0
sS'P078/Sadness/018.jpeg'
p42
I4
sS'P075/Anger/021.jpeg'
p43
I0
sS'P080/Disgust/019.jpeg'
p44
I1
sS'P076/Anger/018.jpeg'
p45
I0
sS'P080/Happiness/030.jpeg'
p46
I3
sS'P075/Surprise/015.jpeg'
p47
I5
sS'P073/Sadness/017.jpeg'
p48
I4
sS'P080/Disgust/017.jpeg'
p49
I1
sS'P075/Disgust/025.jpeg'
p50
I1
sS'P079/Disgust/021.jpeg'
p51
I1
sS'P076/Happiness/020.jpeg'
p52
I3
sS'P078/Disgust/019.jpeg'
p53
I1
sS'P080/Surprise/027.jpeg'
p54
I5
sS'P073/Disgust/023.jpeg'
p55
I1
sS'P078/Happiness/018.jpeg'
p56
I3
sS'P077/Anger/017.jpeg'
p57
I0
sS'P074/Sadness/020.jpeg'
p58
I4
sS'P079/Anger/017.jpeg'
p59
I0
sS'P079/Anger/015.jpeg'
p60
I0
sS'P077/Sadness/016.jpeg'
p61
I4
sS'P076/Surprise/022.jpeg'
p62
I5
sS'P075/Sadness/016.jpeg'
p63
I4
sS'P074/Disgust/023.jpeg'
p64
I1
sS'P076/Disgust/022.jpeg'
p65
I1
sS'P075/Happiness/019.jpeg'
p66
I3
sS'P075/Disgust/024.jpeg'
p67
I1
sS'P074/Fear/019.jpeg'
p68
I2
sS'P076/Fear/019.jpeg'
p69
I2
sS'P077/Sadness/017.jpeg'
p70
I4
sS'P078/Anger/018.jpeg'
p71
I0
sS'P075/Sadness/018.jpeg'
p72
I4
sS'P076/Surprise/021.jpeg'
p73
I5
sS'P074/Anger/022.jpeg'
p74
I0
sS'P074/Surprise/020.jpeg'
p75
I5
sS'P080/Anger/024.jpeg'
p76
I0
sS'P078/Fear/017.jpeg'
p77
I2
sS'P079/Disgust/022.jpeg'
p78
I1
sS'P080/Disgust/018.jpeg'
p79
I1
sS'P079/Happiness/020.jpeg'
p80
I3
sS'P079/Disgust/023.jpeg'
p81
I1
sS'P078/Fear/018.jpeg'
p82
I2
sS'P076/Disgust/021.jpeg'
p83
I1
sS'P077/Fear/030.jpeg'
p84
I2
sS'P074/Sadness/021.jpeg'
p85
I4
sS'P073/Anger/012.jpeg'
p86
I0
sS'P080/Surprise/028.jpeg'
p87
I5
sS'P077/Happiness/020.jpeg'
p88
I3
sS'P078/Fear/019.jpeg'
p89
I2
sS'P077/Disgust/019.jpeg'
p90
I1
sS'P073/Surprise/021.jpeg'
p91
I5
sS'P074/Anger/024.jpeg'
p92
I0
sS'P075/Anger/022.jpeg'
p93
I0
sS'P077/Sadness/018.jpeg'
p94
I4
sS'P075/Fear/022.jpeg'
p95
I2
sS'P074/Anger/023.jpeg'
p96
I0
sS'P073/Disgust/025.jpeg'
p97
I1
sS'P076/Sadness/016.jpeg'
p98
I4
sS'P074/Disgust/025.jpeg'
p99
I1
sS'P078/Happiness/016.jpeg'
p100
I3
sS'P074/Sadness/019.jpeg'
p101
I4
sS'P074/Disgust/024.jpeg'
p102
I1
sS'P079/Happiness/018.jpeg'
p103
I3
sS'P077/Disgust/020.jpeg'
p104
I1
sS'P077/Disgust/021.jpeg'
p105
I1
sS'P080/Sadness/020.jpeg'
p106
I4
sS'P077/Fear/028.jpeg'
p107
I2
sS'P075/Surprise/013.jpeg'
p108
I5
sS'P074/Happiness/021.jpeg'
p109
I3
sS'P073/Anger/013.jpeg'
p110
I0
sS'P077/Anger/018.jpeg'
p111
I0
sS'P077/Anger/016.jpeg'
p112
I0
sS'P073/Fear/018.jpeg'
p113
I2
sS'P075/Disgust/023.jpeg'
p114
I1
sS'P079/Surprise/015.jpeg'
p115
I5
sS'P079/Fear/025.jpeg'
p116
I2
sS'P075/Fear/023.jpeg'
p117
I2
sS'P076/Sadness/015.jpeg'
p118
I4
sS'P077/Fear/029.jpeg'
p119
I2
sS'P075/Surprise/014.jpeg'
p120
I5
sS'P080/Anger/023.jpeg'
p121
I0
sS'P080/Sadness/019.jpeg'
p122
I4
sS'P080/Surprise/029.jpeg'
p123
I5
sS'P077/Surprise/015.jpeg'
p124
I5
sS'P073/Sadness/018.jpeg'
p125
I4
sS'P078/Disgust/018.jpeg'
p126
I1
sS'P076/Happiness/021.jpeg'
p127
I3
sS'P074/Fear/020.jpeg'
p128
I2
sS'P078/Anger/019.jpeg'
p129
I0
sS'P076/Disgust/023.jpeg'
p130
I1
sS'P080/Happiness/031.jpeg'
p131
I3
sS'P075/Happiness/018.jpeg'
p132
I3
sS'P079/Happiness/019.jpeg'
p133
I3
sS'P075/Anger/020.jpeg'
p134
I0
sS'P079/Surprise/016.jpeg'
p135
I5
sS'P077/Happiness/019.jpeg'
p136
I3
sS'P079/Sadness/018.jpeg'
p137
I4
sS'P073/Anger/011.jpeg'
p138
I0
sS'P080/Fear/020.jpeg'
p139
I2
sS'P079/Anger/016.jpeg'
p140
I0
sS'P077/Happiness/021.jpeg'
p141
I3
sS'P079/Fear/026.jpeg'
p142
I2
sS'P078/Happiness/017.jpeg'
p143
I3
sS'P075/Happiness/017.jpeg'
p144
I3
sS'P076/Sadness/017.jpeg'
p145
I4
sS'P073/Surprise/023.jpeg'
p146
I5
ssS'train'
p147
(dp148
S'P051/Surprise/018.jpeg'
p149
I5
sS'P034/Fear/011.jpeg'
p150
I2
sS'P051/Fear/024.jpeg'
p151
I2
sS'P026/Sadness/021.jpeg'
p152
I4
sS'P057/Surprise/020.jpeg'
p153
I5
sS'P025/Anger/023.jpeg'
p154
I0
sS'P027/Surprise/032.jpeg'
p155
I5
sS'P041/Surprise/016.jpeg'
p156
I5
sS'P071/Sadness/019.jpeg'
p157
I4
sS'P045/Fear/017.jpeg'
p158
I2
sS'P046/Surprise/018.jpeg'
p159
I5
sS'P015/Sadness/024.jpeg'
p160
I4
sS'P016/Surprise/021.jpeg'
p161
I5
sS'P023/Surprise/023.jpeg'
p162
I5
sS'P033/Sadness/015.jpeg'
p163
I4
sS'P036/Anger/019.jpeg'
p164
I0
sS'P060/Surprise/019.jpeg'
p165
I5
sS'P052/Sadness/018.jpeg'
p166
I4
sS'P046/Fear/020.jpeg'
p167
I2
sS'P039/Sadness/018.jpeg'
p168
I4
sS'P040/Disgust/016.jpeg'
p169
I1
sS'P024/Fear/021.jpeg'
p170
I2
sS'P020/Disgust/028.jpeg'
p171
I1
sS'P055/Fear/018.jpeg'
p172
I2
sS'P010/Happiness/012.jpeg'
p173
I3
sS'P001/Happiness/023.jpeg'
p174
I3
sS'P002/Disgust/016.jpeg'
p175
I1
sS'P002/Sadness/026.jpeg'
p176
I4
sS'P040/Fear/016.jpeg'
p177
I2
sS'P041/Surprise/017.jpeg'
p178
I5
sS'P045/Sadness/020.jpeg'
p179
I4
sS'P006/Anger/020.jpeg'
p180
I0
sS'P018/Surprise/021.jpeg'
p181
I5
sS'P054/Anger/019.jpeg'
p182
I0
sS'P026/Surprise/019.jpeg'
p183
I5
sS'P012/Disgust/013.jpeg'
p184
I1
sS'P039/Disgust/019.jpeg'
p185
I1
sS'P015/Disgust/015.jpeg'
p186
I1
sS'P020/Fear/022.jpeg'
p187
I2
sS'P022/Fear/023.jpeg'
p188
I2
sS'P040/Anger/014.jpeg'
p189
I0
sS'P004/Disgust/011.jpeg'
p190
I1
sS'P015/Happiness/017.jpeg'
p191
I3
sS'P019/Anger/018.jpeg'
p192
I0
sS'P071/Happiness/019.jpeg'
p193
I3
sS'P070/Anger/020.jpeg'
p194
I0
sS'P051/Disgust/020.jpeg'
p195
I1
sS'P036/Happiness/022.jpeg'
p196
I3
sS'P053/Fear/015.jpeg'
p197
I2
sS'P041/Fear/016.jpeg'
p198
I2
sS'P006/Surprise/011.jpeg'
p199
I5
sS'P029/Fear/021.jpeg'
p200
I2
sS'P065/Surprise/018.jpeg'
p201
I5
sS'P029/Happiness/017.jpeg'
p202
I3
sS'P012/Anger/015.jpeg'
p203
I0
sS'P066/Happiness/023.jpeg'
p204
I3
sS'P053/Disgust/022.jpeg'
p205
I1
sS'P054/Surprise/014.jpeg'
p206
I5
sS'P048/Fear/021.jpeg'
p207
I2
sS'P067/Happiness/023.jpeg'
p208
I3
sS'P035/Surprise/018.jpeg'
p209
I5
sS'P028/Happiness/034.jpeg'
p210
I3
sS'P031/Happiness/020.jpeg'
p211
I3
sS'P036/Disgust/019.jpeg'
p212
I1
sS'P010/Fear/016.jpeg'
p213
I2
sS'P059/Fear/012.jpeg'
p214
I2
sS'P039/Surprise/019.jpeg'
p215
I5
sS'P050/Happiness/029.jpeg'
p216
I3
sS'P032/Disgust/013.jpeg'
p217
I1
sS'P021/Fear/008.jpeg'
p218
I2
sS'P016/Happiness/016.jpeg'
p219
I3
sS'P061/Sadness/017.jpeg'
p220
I4
sS'P025/Anger/025.jpeg'
p221
I0
sS'P058/Happiness/015.jpeg'
p222
I3
sS'P064/Surprise/018.jpeg'
p223
I5
sS'P011/Disgust/025.jpeg'
p224
I1
sS'P029/Sadness/012.jpeg'
p225
I4
sS'P014/Fear/017.jpeg'
p226
I2
sS'P029/Disgust/014.jpeg'
p227
I1
sS'P030/Disgust/020.jpeg'
p228
I1
sS'P065/Anger/017.jpeg'
p229
I0
sS'P061/Disgust/022.jpeg'
p230
I1
sS'P065/Happiness/021.jpeg'
p231
I3
sS'P047/Anger/031.jpeg'
p232
I0
sS'P051/Fear/023.jpeg'
p233
I2
sS'P046/Sadness/021.jpeg'
p234
I4
sS'P004/Surprise/014.jpeg'
p235
I5
sS'P060/Disgust/016.jpeg'
p236
I1
sS'P052/Happiness/023.jpeg'
p237
I3
sS'P001/Surprise/023.jpeg'
p238
I5
sS'P012/Surprise/018.jpeg'
p239
I5
sS'P009/Sadness/008.jpeg'
p240
I4
sS'P052/Disgust/016.jpeg'
p241
I1
sS'P022/Happiness/021.jpeg'
p242
I3
sS'P028/Fear/031.jpeg'
p243
I2
sS'P001/Sadness/017.jpeg'
p244
I4
sS'P015/Surprise/010.jpeg'
p245
I5
sS'P029/Sadness/011.jpeg'
p246
I4
sS'P018/Disgust/007.jpeg'
p247
I1
sS'P060/Sadness/023.jpeg'
p248
I4
sS'P052/Sadness/019.jpeg'
p249
I4
sS'P010/Sadness/009.jpeg'
p250
I4
sS'P042/Anger/024.jpeg'
p251
I0
sS'P068/Fear/020.jpeg'
p252
I2
sS'P054/Fear/022.jpeg'
p253
I2
sS'P020/Sadness/018.jpeg'
p254
I4
sS'P041/Anger/008.jpeg'
p255
I0
sS'P050/Happiness/028.jpeg'
p256
I3
sS'P070/Surprise/022.jpeg'
p257
I5
sS'P056/Fear/017.jpeg'
p258
I2
sS'P055/Fear/019.jpeg'
p259
I2
sS'P004/Anger/016.jpeg'
p260
I0
sS'P010/Disgust/014.jpeg'
p261
I1
sS'P051/Anger/012.jpeg'
p262
I0
sS'P054/Fear/023.jpeg'
p263
I2
sS'P022/Disgust/018.jpeg'
p264
I1
sS'P018/Fear/018.jpeg'
p265
I2
sS'P034/Fear/010.jpeg'
p266
I2
sS'P015/Sadness/025.jpeg'
p267
I4
sS'P005/Anger/031.jpeg'
p268
I0
sS'P068/Surprise/017.jpeg'
p269
I5
sS'P057/Disgust/017.jpeg'
p270
I1
sS'P023/Disgust/037.jpeg'
p271
I1
sS'P025/Fear/050.jpeg'
p272
I2
sS'P063/Surprise/020.jpeg'
p273
I5
sS'P042/Surprise/012.jpeg'
p274
I5
sS'P055/Happiness/022.jpeg'
p275
I3
sS'P012/Fear/024.jpeg'
p276
I2
sS'P013/Surprise/018.jpeg'
p277
I5
sS'P055/Disgust/020.jpeg'
p278
I1
sS'P068/Happiness/021.jpeg'
p279
I3
sS'P032/Fear/037.jpeg'
p280
I2
sS'P035/Disgust/024.jpeg'
p281
I1
sS'P031/Fear/016.jpeg'
p282
I2
sS'P011/Surprise/016.jpeg'
p283
I5
sS'P040/Sadness/007.jpeg'
p284
I4
sS'P043/Fear/021.jpeg'
p285
I2
sS'P004/Fear/013.jpeg'
p286
I2
sS'P072/Happiness/021.jpeg'
p287
I3
sS'P006/Disgust/024.jpeg'
p288
I1
sS'P021/Happiness/013.jpeg'
p289
I3
sS'P002/Happiness/013.jpeg'
p290
I3
sS'P070/Fear/022.jpeg'
p291
I2
sS'P024/Sadness/013.jpeg'
p292
I4
sS'P043/Happiness/025.jpeg'
p293
I3
sS'P051/Sadness/016.jpeg'
p294
I4
sS'P042/Disgust/018.jpeg'
p295
I1
sS'P010/Surprise/014.jpeg'
p296
I5
sS'P053/Surprise/018.jpeg'
p297
I5
sS'P070/Surprise/023.jpeg'
p298
I5
sS'P023/Anger/024.jpeg'
p299
I0
sS'P043/Sadness/023.jpeg'
p300
I4
sS'P069/Disgust/021.jpeg'
p301
I1
sS'P021/Disgust/009.jpeg'
p302
I1
sS'P052/Happiness/021.jpeg'
p303
I3
sS'P019/Happiness/018.jpeg'
p304
I3
sS'P035/Sadness/022.jpeg'
p305
I4
sS'P045/Sadness/019.jpeg'
p306
I4
sS'P035/Happiness/020.jpeg'
p307
I3
sS'P011/Sadness/014.jpeg'
p308
I4
sS'P063/Disgust/022.jpeg'
p309
I1
sS'P030/Disgust/019.jpeg'
p310
I1
sS'P072/Fear/014.jpeg'
p311
I2
sS'P067/Surprise/023.jpeg'
p312
I5
sS'P043/Anger/021.jpeg'
p313
I0
sS'P066/Surprise/020.jpeg'
p314
I5
sS'P064/Happiness/021.jpeg'
p315
I3
sS'P057/Sadness/021.jpeg'
p316
I4
sS'P042/Fear/020.jpeg'
p317
I2
sS'P036/Sadness/019.jpeg'
p318
I4
sS'P062/Disgust/016.jpeg'
p319
I1
sS'P065/Sadness/022.jpeg'
p320
I4
sS'P036/Anger/018.jpeg'
p321
I0
sS'P017/Fear/016.jpeg'
p322
I2
sS'P017/Sadness/014.jpeg'
p323
I4
sS'P072/Fear/013.jpeg'
p324
I2
sS'P044/Disgust/013.jpeg'
p325
I1
sS'P024/Happiness/021.jpeg'
p326
I3
sS'P071/Sadness/020.jpeg'
p327
I4
sS'P026/Sadness/020.jpeg'
p328
I4
sS'P001/Anger/015.jpeg'
p329
I0
sS'P050/Anger/024.jpeg'
p330
I0
sS'P012/Happiness/017.jpeg'
p331
I3
sS'P053/Disgust/023.jpeg'
p332
I1
sS'P052/Fear/027.jpeg'
p333
I2
sS'P026/Fear/027.jpeg'
p334
I2
sS'P015/Happiness/015.jpeg'
p335
I3
sS'P017/Sadness/015.jpeg'
p336
I4
sS'P036/Surprise/018.jpeg'
p337
I5
sS'P002/Anger/014.jpeg'
p338
I0
sS'P021/Fear/010.jpeg'
p339
I2
sS'P022/Anger/020.jpeg'
p340
I0
sS'P072/Surprise/023.jpeg'
p341
I5
sS'P022/Fear/024.jpeg'
p342
I2
sS'P021/Happiness/014.jpeg'
p343
I3
sS'P058/Surprise/020.jpeg'
p344
I5
sS'P029/Happiness/016.jpeg'
p345
I3
sS'P072/Disgust/017.jpeg'
p346
I1
sS'P018/Disgust/008.jpeg'
p347
I1
sS'P024/Fear/020.jpeg'
p348
I2
sS'P007/Surprise/040.jpeg'
p349
I5
sS'P067/Disgust/025.jpeg'
p350
I1
sS'P056/Anger/014.jpeg'
p351
I0
sS'P030/Happiness/017.jpeg'
p352
I3
sS'P006/Anger/022.jpeg'
p353
I0
sS'P013/Fear/023.jpeg'
p354
I2
sS'P010/Surprise/016.jpeg'
p355
I5
sS'P026/Fear/028.jpeg'
p356
I2
sS'P053/Fear/014.jpeg'
p357
I2
sS'P033/Anger/020.jpeg'
p358
I0
sS'P046/Anger/015.jpeg'
p359
I0
sS'P026/Disgust/016.jpeg'
p360
I1
sS'P012/Disgust/015.jpeg'
p361
I1
sS'P007/Disgust/016.jpeg'
p362
I1
sS'P005/Sadness/044.jpeg'
p363
I4
sS'P057/Disgust/018.jpeg'
p364
I1
sS'P055/Anger/014.jpeg'
p365
I0
sS'P014/Sadness/030.jpeg'
p366
I4
sS'P023/Disgust/036.jpeg'
p367
I1
sS'P006/Sadness/013.jpeg'
p368
I4
sS'P001/Sadness/016.jpeg'
p369
I4
sS'P064/Anger/018.jpeg'
p370
I0
sS'P003/Disgust/009.jpeg'
p371
I1
sS'P066/Sadness/024.jpeg'
p372
I4
sS'P066/Fear/024.jpeg'
p373
I2
sS'P048/Disgust/015.jpeg'
p374
I1
sS'P017/Disgust/026.jpeg'
p375
I1
sS'P021/Anger/013.jpeg'
p376
I0
sS'P062/Disgust/015.jpeg'
p377
I1
sS'P004/Fear/014.jpeg'
p378
I2
sS'P031/Disgust/012.jpeg'
p379
I1
sS'P007/Sadness/020.jpeg'
p380
I4
sS'P025/Sadness/030.jpeg'
p381
I4
sS'P064/Happiness/019.jpeg'
p382
I3
sS'P058/Fear/017.jpeg'
p383
I2
sS'P055/Sadness/024.jpeg'
p384
I4
sS'P070/Disgust/015.jpeg'
p385
I1
sS'P008/Disgust/024.jpeg'
p386
I1
sS'P010/Surprise/015.jpeg'
p387
I5
sS'P014/Anger/016.jpeg'
p388
I0
sS'P005/Disgust/020.jpeg'
p389
I1
sS'P049/Surprise/022.jpeg'
p390
I5
sS'P047/Surprise/021.jpeg'
p391
I5
sS'P017/Fear/015.jpeg'
p392
I2
sS'P010/Anger/017.jpeg'
p393
I0
sS'P005/Disgust/019.jpeg'
p394
I1
sS'P041/Anger/009.jpeg'
p395
I0
sS'P042/Sadness/023.jpeg'
p396
I4
sS'P003/Happiness/013.jpeg'
p397
I3
sS'P014/Happiness/016.jpeg'
p398
I3
sS'P056/Sadness/023.jpeg'
p399
I4
sS'P029/Anger/020.jpeg'
p400
I0
sS'P038/Happiness/043.jpeg'
p401
I3
sS'P019/Fear/018.jpeg'
p402
I2
sS'P015/Sadness/023.jpeg'
p403
I4
sS'P028/Disgust/013.jpeg'
p404
I1
sS'P052/Fear/025.jpeg'
p405
I2
sS'P010/Disgust/013.jpeg'
p406
I1
sS'P071/Happiness/020.jpeg'
p407
I3
sS'P028/Surprise/015.jpeg'
p408
I5
sS'P063/Happiness/022.jpeg'
p409
I3
sS'P016/Disgust/016.jpeg'
p410
I1
sS'P060/Anger/021.jpeg'
p411
I0
sS'P022/Surprise/018.jpeg'
p412
I5
sS'P024/Disgust/024.jpeg'
p413
I1
sS'P015/Disgust/016.jpeg'
p414
I1
sS'P068/Disgust/017.jpeg'
p415
I1
sS'P020/Fear/024.jpeg'
p416
I2
sS'P017/Fear/014.jpeg'
p417
I2
sS'P011/Fear/015.jpeg'
p418
I2
sS'P003/Sadness/013.jpeg'
p419
I4
sS'P020/Anger/028.jpeg'
p420
I0
sS'P027/Surprise/030.jpeg'
p421
I5
sS'P033/Disgust/019.jpeg'
p422
I1
sS'P069/Anger/021.jpeg'
p423
I0
sS'P064/Surprise/019.jpeg'
p424
I5
sS'P051/Anger/014.jpeg'
p425
I0
sS'P047/Sadness/030.jpeg'
p426
I4
sS'P026/Anger/016.jpeg'
p427
I0
sS'P046/Happiness/020.jpeg'
p428
I3
sS'P012/Fear/023.jpeg'
p429
I2
sS'P064/Disgust/018.jpeg'
p430
I1
sS'P047/Disgust/026.jpeg'
p431
I1
sS'P014/Surprise/017.jpeg'
p432
I5
sS'P009/Sadness/009.jpeg'
p433
I4
sS'P061/Anger/017.jpeg'
p434
I0
sS'P017/Disgust/024.jpeg'
p435
I1
sS'P040/Fear/017.jpeg'
p436
I2
sS'P042/Happiness/016.jpeg'
p437
I3
sS'P003/Sadness/012.jpeg'
p438
I4
sS'P038/Happiness/044.jpeg'
p439
I3
sS'P072/Anger/024.jpeg'
p440
I0
sS'P051/Happiness/023.jpeg'
p441
I3
sS'P048/Surprise/023.jpeg'
p442
I5
sS'P002/Surprise/017.jpeg'
p443
I5
sS'P057/Fear/022.jpeg'
p444
I2
sS'P038/Anger/020.jpeg'
p445
I0
sS'P007/Anger/069.jpeg'
p446
I0
sS'P034/Surprise/016.jpeg'
p447
I5
sS'P050/Anger/023.jpeg'
p448
I0
sS'P054/Anger/020.jpeg'
p449
I0
sS'P033/Happiness/014.jpeg'
p450
I3
sS'P066/Surprise/021.jpeg'
p451
I5
sS'P006/Anger/021.jpeg'
p452
I0
sS'P037/Fear/013.jpeg'
p453
I2
sS'P005/Happiness/012.jpeg'
p454
I3
sS'P059/Sadness/017.jpeg'
p455
I4
sS'P045/Sadness/021.jpeg'
p456
I4
sS'P037/Disgust/015.jpeg'
p457
I1
sS'P016/Happiness/014.jpeg'
p458
I3
sS'P018/Sadness/011.jpeg'
p459
I4
sS'P062/Fear/024.jpeg'
p460
I2
sS'P001/Fear/015.jpeg'
p461
I2
sS'P007/Happiness/031.jpeg'
p462
I3
sS'P051/Sadness/018.jpeg'
p463
I4
sS'P065/Surprise/016.jpeg'
p464
I5
sS'P006/Fear/021.jpeg'
p465
I2
sS'P008/Surprise/029.jpeg'
p466
I5
sS'P016/Anger/031.jpeg'
p467
I0
sS'P006/Disgust/026.jpeg'
p468
I1
sS'P068/Happiness/019.jpeg'
p469
I3
sS'P042/Anger/023.jpeg'
p470
I0
sS'P006/Sadness/014.jpeg'
p471
I4
sS'P030/Happiness/018.jpeg'
p472
I3
sS'P025/Fear/049.jpeg'
p473
I2
sS'P008/Happiness/017.jpeg'
p474
I3
sS'P032/Anger/029.jpeg'
p475
I0
sS'P053/Surprise/020.jpeg'
p476
I5
sS'P054/Surprise/016.jpeg'
p477
I5
sS'P029/Surprise/038.jpeg'
p478
I5
sS'P070/Surprise/021.jpeg'
p479
I5
sS'P063/Happiness/020.jpeg'
p480
I3
sS'P068/Surprise/016.jpeg'
p481
I5
sS'P025/Sadness/032.jpeg'
p482
I4
sS'P020/Surprise/024.jpeg'
p483
I5
sS'P058/Disgust/018.jpeg'
p484
I1
sS'P064/Disgust/016.jpeg'
p485
I1
sS'P072/Fear/015.jpeg'
p486
I2
sS'P028/Sadness/019.jpeg'
p487
I4
sS'P061/Surprise/016.jpeg'
p488
I5
sS'P041/Happiness/025.jpeg'
p489
I3
sS'P015/Disgust/014.jpeg'
p490
I1
sS'P021/Disgust/007.jpeg'
p491
I1
sS'P039/Disgust/020.jpeg'
p492
I1
sS'P008/Happiness/019.jpeg'
p493
I3
sS'P068/Disgust/019.jpeg'
p494
I1
sS'P039/Anger/012.jpeg'
p495
I0
sS'P063/Anger/023.jpeg'
p496
I0
sS'P024/Sadness/011.jpeg'
p497
I4
sS'P040/Anger/012.jpeg'
p498
I0
sS'P031/Happiness/019.jpeg'
p499
I3
sS'P051/Disgust/021.jpeg'
p500
I1
sS'P071/Happiness/018.jpeg'
p501
I3
sS'P007/Fear/021.jpeg'
p502
I2
sS'P047/Anger/030.jpeg'
p503
I0
sS'P018/Happiness/031.jpeg'
p504
I3
sS'P017/Anger/014.jpeg'
p505
I0
sS'P014/Disgust/014.jpeg'
p506
I1
sS'P058/Disgust/017.jpeg'
p507
I1
sS'P067/Surprise/022.jpeg'
p508
I5
sS'P028/Sadness/018.jpeg'
p509
I4
sS'P021/Fear/009.jpeg'
p510
I2
sS'P009/Disgust/019.jpeg'
p511
I1
sS'P011/Happiness/019.jpeg'
p512
I3
sS'P053/Sadness/014.jpeg'
p513
I4
sS'P021/Surprise/008.jpeg'
p514
I5
sS'P021/Sadness/015.jpeg'
p515
I4
sS'P062/Surprise/020.jpeg'
p516
I5
sS'P013/Surprise/017.jpeg'
p517
I5
sS'P057/Sadness/020.jpeg'
p518
I4
sS'P062/Anger/022.jpeg'
p519
I0
sS'P038/Surprise/017.jpeg'
p520
I5
sS'P031/Happiness/018.jpeg'
p521
I3
sS'P067/Anger/017.jpeg'
p522
I0
sS'P040/Surprise/022.jpeg'
p523
I5
sS'P009/Fear/020.jpeg'
p524
I2
sS'P027/Anger/024.jpeg'
p525
I0
sS'P004/Sadness/012.jpeg'
p526
I4
sS'P024/Anger/021.jpeg'
p527
I0
sS'P019/Disgust/008.jpeg'
p528
I1
sS'P034/Happiness/022.jpeg'
p529
I3
sS'P044/Sadness/016.jpeg'
p530
I4
sS'P054/Disgust/016.jpeg'
p531
I1
sS'P051/Happiness/021.jpeg'
p532
I3
sS'P031/Anger/019.jpeg'
p533
I0
sS'P012/Sadness/019.jpeg'
p534
I4
sS'P057/Fear/020.jpeg'
p535
I2
sS'P045/Fear/019.jpeg'
p536
I2
sS'P024/Disgust/023.jpeg'
p537
I1
sS'P059/Fear/014.jpeg'
p538
I2
sS'P061/Surprise/015.jpeg'
p539
I5
sS'P027/Happiness/029.jpeg'
p540
I3
sS'P061/Happiness/018.jpeg'
p541
I3
sS'P071/Sadness/021.jpeg'
p542
I4
sS'P062/Sadness/020.jpeg'
p543
I4
sS'P026/Happiness/033.jpeg'
p544
I3
sS'P067/Fear/017.jpeg'
p545
I2
sS'P032/Fear/036.jpeg'
p546
I2
sS'P036/Surprise/020.jpeg'
p547
I5
sS'P042/Anger/022.jpeg'
p548
I0
sS'P037/Sadness/018.jpeg'
p549
I4
sS'P028/Sadness/017.jpeg'
p550
I4
sS'P027/Happiness/030.jpeg'
p551
I3
sS'P038/Anger/019.jpeg'
p552
I0
sS'P065/Disgust/021.jpeg'
p553
I1
sS'P015/Anger/020.jpeg'
p554
I0
sS'P018/Anger/026.jpeg'
p555
I0
sS'P060/Anger/022.jpeg'
p556
I0
sS'P020/Anger/029.jpeg'
p557
I0
sS'P035/Anger/043.jpeg'
p558
I0
sS'P007/Surprise/039.jpeg'
p559
I5
sS'P048/Anger/013.jpeg'
p560
I0
sS'P002/Anger/013.jpeg'
p561
I0
sS'P038/Disgust/010.jpeg'
p562
I1
sS'P014/Surprise/018.jpeg'
p563
I5
sS'P044/Happiness/018.jpeg'
p564
I3
sS'P035/Sadness/020.jpeg'
p565
I4
sS'P002/Disgust/014.jpeg'
p566
I1
sS'P048/Sadness/022.jpeg'
p567
I4
sS'P037/Happiness/016.jpeg'
p568
I3
sS'P065/Disgust/022.jpeg'
p569
I1
sS'P039/Happiness/013.jpeg'
p570
I3
sS'P038/Sadness/020.jpeg'
p571
I4
sS'P063/Disgust/023.jpeg'
p572
I1
sS'P069/Anger/020.jpeg'
p573
I0
sS'P034/Happiness/024.jpeg'
p574
I3
sS'P027/Anger/023.jpeg'
p575
I0
sS'P029/Disgust/015.jpeg'
p576
I1
sS'P036/Fear/020.jpeg'
p577
I2
sS'P034/Anger/023.jpeg'
p578
I0
sS'P069/Happiness/020.jpeg'
p579
I3
sS'P035/Happiness/022.jpeg'
p580
I3
sS'P043/Sadness/021.jpeg'
p581
I4
sS'P033/Fear/016.jpeg'
p582
I2
sS'P061/Sadness/018.jpeg'
p583
I4
sS'P035/Surprise/017.jpeg'
p584
I5
sS'P071/Fear/025.jpeg'
p585
I2
sS'P058/Anger/016.jpeg'
p586
I0
sS'P062/Anger/020.jpeg'
p587
I0
sS'P014/Fear/018.jpeg'
p588
I2
sS'P055/Anger/016.jpeg'
p589
I0
sS'P005/Happiness/014.jpeg'
p590
I3
sS'P026/Happiness/034.jpeg'
p591
I3
sS'P009/Happiness/015.jpeg'
p592
I3
sS'P023/Fear/016.jpeg'
p593
I2
sS'P040/Sadness/008.jpeg'
p594
I4
sS'P035/Happiness/021.jpeg'
p595
I3
sS'P050/Sadness/028.jpeg'
p596
I4
sS'P034/Happiness/023.jpeg'
p597
I3
sS'P007/Sadness/021.jpeg'
p598
I4
sS'P002/Sadness/027.jpeg'
p599
I4
sS'P025/Disgust/034.jpeg'
p600
I1
sS'P026/Surprise/018.jpeg'
p601
I5
sS'P053/Anger/015.jpeg'
p602
I0
sS'P001/Sadness/015.jpeg'
p603
I4
sS'P035/Disgust/023.jpeg'
p604
I1
sS'P037/Anger/016.jpeg'
p605
I0
sS'P017/Surprise/014.jpeg'
p606
I5
sS'P067/Happiness/024.jpeg'
p607
I3
sS'P019/Anger/020.jpeg'
p608
I0
sS'P006/Happiness/018.jpeg'
p609
I3
sS'P053/Disgust/021.jpeg'
p610
I1
sS'P060/Fear/017.jpeg'
p611
I2
sS'P016/Happiness/015.jpeg'
p612
I3
sS'P030/Fear/019.jpeg'
p613
I2
sS'P026/Happiness/035.jpeg'
p614
I3
sS'P059/Happiness/020.jpeg'
p615
I3
sS'P036/Anger/020.jpeg'
p616
I0
sS'P011/Happiness/021.jpeg'
p617
I3
sS'P002/Happiness/015.jpeg'
p618
I3
sS'P031/Surprise/017.jpeg'
p619
I5
sS'P010/Anger/018.jpeg'
p620
I0
sS'P007/Happiness/032.jpeg'
p621
I3
sS'P004/Sadness/010.jpeg'
p622
I4
sS'P041/Surprise/015.jpeg'
p623
I5
sS'P021/Anger/015.jpeg'
p624
I0
sS'P042/Happiness/018.jpeg'
p625
I3
sS'P055/Disgust/022.jpeg'
p626
I1
sS'P019/Disgust/010.jpeg'
p627
I1
sS'P042/Sadness/024.jpeg'
p628
I4
sS'P071/Disgust/017.jpeg'
p629
I1
sS'P039/Happiness/015.jpeg'
p630
I3
sS'P069/Fear/020.jpeg'
p631
I2
sS'P067/Surprise/021.jpeg'
p632
I5
sS'P038/Fear/016.jpeg'
p633
I2
sS'P048/Anger/014.jpeg'
p634
I0
sS'P007/Disgust/014.jpeg'
p635
I1
sS'P019/Surprise/015.jpeg'
p636
I5
sS'P008/Sadness/024.jpeg'
p637
I4
sS'P063/Sadness/022.jpeg'
p638
I4
sS'P065/Happiness/020.jpeg'
p639
I3
sS'P013/Disgust/015.jpeg'
p640
I1
sS'P028/Surprise/017.jpeg'
p641
I5
sS'P061/Disgust/021.jpeg'
p642
I1
sS'P020/Surprise/023.jpeg'
p643
I5
sS'P007/Disgust/015.jpeg'
p644
I1
sS'P029/Surprise/036.jpeg'
p645
I5
sS'P025/Fear/051.jpeg'
p646
I2
sS'P059/Disgust/014.jpeg'
p647
I1
sS'P032/Disgust/011.jpeg'
p648
I1
sS'P062/Disgust/017.jpeg'
p649
I1
sS'P016/Sadness/011.jpeg'
p650
I4
sS'P017/Surprise/016.jpeg'
p651
I5
sS'P060/Anger/023.jpeg'
p652
I0
sS'P003/Disgust/007.jpeg'
p653
I1
sS'P069/Surprise/022.jpeg'
p654
I5
sS'P048/Sadness/021.jpeg'
p655
I4
sS'P013/Disgust/016.jpeg'
p656
I1
sS'P041/Anger/010.jpeg'
p657
I0
sS'P043/Disgust/022.jpeg'
p658
I1
sS'P010/Happiness/011.jpeg'
p659
I3
sS'P011/Anger/017.jpeg'
p660
I0
sS'P044/Surprise/017.jpeg'
p661
I5
sS'P009/Disgust/021.jpeg'
p662
I1
sS'P024/Anger/020.jpeg'
p663
I0
sS'P054/Sadness/021.jpeg'
p664
I4
sS'P069/Fear/022.jpeg'
p665
I2
sS'P014/Fear/016.jpeg'
p666
I2
sS'P072/Anger/023.jpeg'
p667
I0
sS'P047/Surprise/022.jpeg'
p668
I5
sS'P047/Disgust/025.jpeg'
p669
I1
sS'P005/Sadness/043.jpeg'
p670
I4
sS'P065/Fear/017.jpeg'
p671
I2
sS'P031/Sadness/013.jpeg'
p672
I4
sS'P057/Fear/021.jpeg'
p673
I2
sS'P013/Fear/022.jpeg'
p674
I2
sS'P071/Surprise/019.jpeg'
p675
I5
sS'P027/Sadness/022.jpeg'
p676
I4
sS'P047/Sadness/029.jpeg'
p677
I4
sS'P032/Sadness/012.jpeg'
p678
I4
sS'P054/Sadness/020.jpeg'
p679
I4
sS'P068/Anger/024.jpeg'
p680
I0
sS'P028/Disgust/012.jpeg'
p681
I1
sS'P016/Surprise/020.jpeg'
p682
I5
sS'P052/Anger/022.jpeg'
p683
I0
sS'P033/Happiness/015.jpeg'
p684
I3
sS'P047/Sadness/028.jpeg'
p685
I4
sS'P026/Anger/017.jpeg'
p686
I0
sS'P062/Sadness/021.jpeg'
p687
I4
sS'P001/Surprise/022.jpeg'
p688
I5
sS'P005/Surprise/015.jpeg'
p689
I5
sS'P031/Sadness/012.jpeg'
p690
I4
sS'P023/Happiness/021.jpeg'
p691
I3
sS'P059/Surprise/021.jpeg'
p692
I5
sS'P064/Anger/017.jpeg'
p693
I0
sS'P032/Fear/038.jpeg'
p694
I2
sS'P027/Surprise/031.jpeg'
p695
I5
sS'P027/Sadness/020.jpeg'
p696
I4
sS'P064/Sadness/026.jpeg'
p697
I4
sS'P061/Disgust/020.jpeg'
p698
I1
sS'P059/Happiness/019.jpeg'
p699
I3
sS'P072/Sadness/018.jpeg'
p700
I4
sS'P054/Fear/021.jpeg'
p701
I2
sS'P025/Happiness/028.jpeg'
p702
I3
sS'P045/Happiness/030.jpeg'
p703
I3
sS'P065/Anger/019.jpeg'
p704
I0
sS'P001/Anger/016.jpeg'
p705
I0
sS'P007/Anger/071.jpeg'
p706
I0
sS'P044/Anger/020.jpeg'
p707
I0
sS'P046/Anger/016.jpeg'
p708
I0
sS'P036/Happiness/020.jpeg'
p709
I3
sS'P039/Happiness/014.jpeg'
p710
I3
sS'P056/Fear/016.jpeg'
p711
I2
sS'P022/Anger/019.jpeg'
p712
I0
sS'P061/Anger/018.jpeg'
p713
I0
sS'P064/Fear/018.jpeg'
p714
I2
sS'P010/Sadness/010.jpeg'
p715
I4
sS'P017/Disgust/025.jpeg'
p716
I1
sS'P060/Fear/018.jpeg'
p717
I2
sS'P002/Fear/015.jpeg'
p718
I2
sS'P005/Fear/022.jpeg'
p719
I2
sS'P004/Anger/015.jpeg'
p720
I0
sS'P033/Surprise/015.jpeg'
p721
I5
sS'P053/Anger/016.jpeg'
p722
I0
sS'P062/Fear/023.jpeg'
p723
I2
sS'P049/Anger/022.jpeg'
p724
I0
sS'P030/Anger/023.jpeg'
p725
I0
sS'P016/Sadness/013.jpeg'
p726
I4
sS'P033/Disgust/018.jpeg'
p727
I1
sS'P030/Surprise/021.jpeg'
p728
I5
sS'P006/Happiness/017.jpeg'
p729
I3
sS'P030/Happiness/016.jpeg'
p730
I3
sS'P072/Surprise/025.jpeg'
p731
I5
sS'P031/Anger/017.jpeg'
p732
I0
sS'P007/Fear/019.jpeg'
p733
I2
sS'P051/Fear/022.jpeg'
p734
I2
sS'P069/Happiness/021.jpeg'
p735
I3
sS'P036/Disgust/018.jpeg'
p736
I1
sS'P056/Surprise/018.jpeg'
p737
I5
sS'P056/Disgust/021.jpeg'
p738
I1
sS'P046/Disgust/014.jpeg'
p739
I1
sS'P056/Disgust/020.jpeg'
p740
I1
sS'P039/Fear/015.jpeg'
p741
I2
sS'P055/Sadness/025.jpeg'
p742
I4
sS'P016/Surprise/022.jpeg'
p743
I5
sS'P049/Disgust/012.jpeg'
p744
I1
sS'P003/Anger/018.jpeg'
p745
I0
sS'P008/Sadness/023.jpeg'
p746
I4
sS'P039/Anger/011.jpeg'
p747
I0
sS'P013/Disgust/014.jpeg'
p748
I1
sS'P039/Sadness/019.jpeg'
p749
I4
sS'P001/Fear/017.jpeg'
p750
I2
sS'P040/Anger/013.jpeg'
p751
I0
sS'P043/Happiness/024.jpeg'
p752
I3
sS'P020/Sadness/019.jpeg'
p753
I4
sS'P005/Happiness/013.jpeg'
p754
I3
sS'P052/Anger/021.jpeg'
p755
I0
sS'P065/Happiness/019.jpeg'
p756
I3
sS'P058/Fear/018.jpeg'
p757
I2
sS'P031/Surprise/016.jpeg'
p758
I5
sS'P020/Happiness/028.jpeg'
p759
I3
sS'P001/Happiness/021.jpeg'
p760
I3
sS'P022/Anger/021.jpeg'
p761
I0
sS'P038/Sadness/021.jpeg'
p762
I4
sS'P060/Surprise/020.jpeg'
p763
I5
sS'P045/Happiness/032.jpeg'
p764
I3
sS'P043/Fear/023.jpeg'
p765
I2
sS'P041/Sadness/021.jpeg'
p766
I4
sS'P043/Anger/022.jpeg'
p767
I0
sS'P018/Fear/020.jpeg'
p768
I2
sS'P019/Fear/017.jpeg'
p769
I2
sS'P047/Anger/032.jpeg'
p770
I0
sS'P007/Surprise/038.jpeg'
p771
I5
sS'P049/Sadness/025.jpeg'
p772
I4
sS'P028/Disgust/014.jpeg'
p773
I1
sS'P012/Surprise/020.jpeg'
p774
I5
sS'P027/Disgust/020.jpeg'
p775
I1
sS'P022/Sadness/017.jpeg'
p776
I4
sS'P005/Sadness/042.jpeg'
p777
I4
sS'P006/Surprise/013.jpeg'
p778
I5
sS'P067/Sadness/019.jpeg'
p779
I4
sS'P043/Surprise/022.jpeg'
p780
I5
sS'P035/Fear/040.jpeg'
p781
I2
sS'P011/Anger/018.jpeg'
p782
I0
sS'P063/Surprise/019.jpeg'
p783
I5
sS'P010/Fear/017.jpeg'
p784
I2
sS'P070/Anger/021.jpeg'
p785
I0
sS'P035/Sadness/021.jpeg'
p786
I4
sS'P034/Fear/012.jpeg'
p787
I2
sS'P039/Surprise/021.jpeg'
p788
I5
sS'P003/Fear/011.jpeg'
p789
I2
sS'P034/Disgust/022.jpeg'
p790
I1
sS'P048/Surprise/024.jpeg'
p791
I5
sS'P013/Sadness/013.jpeg'
p792
I4
sS'P022/Sadness/018.jpeg'
p793
I4
sS'P019/Sadness/010.jpeg'
p794
I4
sS'P038/Fear/018.jpeg'
p795
I2
sS'P017/Anger/016.jpeg'
p796
I0
sS'P056/Sadness/022.jpeg'
p797
I4
sS'P062/Fear/022.jpeg'
p798
I2
sS'P039/Fear/017.jpeg'
p799
I2
sS'P028/Fear/030.jpeg'
p800
I2
sS'P003/Happiness/012.jpeg'
p801
I3
sS'P048/Happiness/021.jpeg'
p802
I3
sS'P013/Happiness/009.jpeg'
p803
I3
sS'P058/Happiness/014.jpeg'
p804
I3
sS'P047/Happiness/013.jpeg'
p805
I3
sS'P036/Sadness/020.jpeg'
p806
I4
sS'P017/Happiness/018.jpeg'
p807
I3
sS'P056/Anger/015.jpeg'
p808
I0
sS'P057/Happiness/017.jpeg'
p809
I3
sS'P012/Fear/022.jpeg'
p810
I2
sS'P068/Fear/018.jpeg'
p811
I2
sS'P027/Anger/025.jpeg'
p812
I0
sS'P014/Surprise/016.jpeg'
p813
I5
sS'P009/Sadness/010.jpeg'
p814
I4
sS'P036/Surprise/019.jpeg'
p815
I5
sS'P063/Disgust/024.jpeg'
p816
I1
sS'P008/Surprise/027.jpeg'
p817
I5
sS'P021/Surprise/010.jpeg'
p818
I5
sS'P048/Sadness/023.jpeg'
p819
I4
sS'P021/Anger/014.jpeg'
p820
I0
sS'P034/Anger/024.jpeg'
p821
I0
sS'P032/Sadness/013.jpeg'
p822
I4
sS'P004/Anger/017.jpeg'
p823
I0
sS'P008/Disgust/022.jpeg'
p824
I1
sS'P066/Anger/019.jpeg'
p825
I0
sS'P046/Anger/014.jpeg'
p826
I0
sS'P065/Disgust/023.jpeg'
p827
I1
sS'P009/Anger/023.jpeg'
p828
I0
sS'P066/Fear/022.jpeg'
p829
I2
sS'P031/Fear/015.jpeg'
p830
I2
sS'P069/Disgust/020.jpeg'
p831
I1
sS'P058/Fear/016.jpeg'
p832
I2
sS'P020/Disgust/027.jpeg'
p833
I1
sS'P008/Disgust/023.jpeg'
p834
I1
sS'P041/Fear/014.jpeg'
p835
I2
sS'P003/Disgust/008.jpeg'
p836
I1
sS'P016/Anger/030.jpeg'
p837
I0
sS'P059/Surprise/023.jpeg'
p838
I5
sS'P046/Sadness/022.jpeg'
p839
I4
sS'P005/Surprise/013.jpeg'
p840
I5
sS'P024/Sadness/012.jpeg'
p841
I4
sS'P056/Happiness/017.jpeg'
p842
I3
sS'P046/Surprise/017.jpeg'
p843
I5
sS'P028/Anger/017.jpeg'
p844
I0
sS'P051/Sadness/017.jpeg'
p845
I4
sS'P001/Happiness/022.jpeg'
p846
I3
sS'P037/Happiness/015.jpeg'
p847
I3
sS'P014/Anger/015.jpeg'
p848
I0
sS'P065/Sadness/020.jpeg'
p849
I4
sS'P056/Surprise/019.jpeg'
p850
I5
sS'P004/Happiness/013.jpeg'
p851
I3
sS'P033/Fear/017.jpeg'
p852
I2
sS'P003/Anger/019.jpeg'
p853
I0
sS'P047/Disgust/027.jpeg'
p854
I1
sS'P025/Surprise/021.jpeg'
p855
I5
sS'P044/Disgust/014.jpeg'
p856
I1
sS'P016/Disgust/014.jpeg'
p857
I1
sS'P064/Sadness/024.jpeg'
p858
I4
sS'P011/Sadness/013.jpeg'
p859
I4
sS'P020/Happiness/029.jpeg'
p860
I3
sS'P059/Disgust/015.jpeg'
p861
I1
sS'P030/Surprise/022.jpeg'
p862
I5
sS'P059/Anger/013.jpeg'
p863
I0
sS'P061/Fear/019.jpeg'
p864
I2
sS'P049/Disgust/010.jpeg'
p865
I1
sS'P044/Surprise/018.jpeg'
p866
I5
sS'P038/Happiness/042.jpeg'
p867
I3
sS'P055/Surprise/022.jpeg'
p868
I5
sS'P037/Surprise/016.jpeg'
p869
I5
sS'P011/Fear/016.jpeg'
p870
I2
sS'P064/Fear/017.jpeg'
p871
I2
sS'P044/Fear/020.jpeg'
p872
I2
sS'P045/Anger/021.jpeg'
p873
I0
sS'P050/Happiness/030.jpeg'
p874
I3
sS'P058/Surprise/021.jpeg'
p875
I5
sS'P023/Surprise/021.jpeg'
p876
I5
sS'P071/Anger/018.jpeg'
p877
I0
sS'P049/Happiness/021.jpeg'
p878
I3
sS'P050/Disgust/025.jpeg'
p879
I1
sS'P032/Happiness/019.jpeg'
p880
I3
sS'P063/Surprise/021.jpeg'
p881
I5
sS'P029/Fear/022.jpeg'
p882
I2
sS'P013/Happiness/011.jpeg'
p883
I3
sS'P070/Anger/019.jpeg'
p884
I0
sS'P066/Disgust/020.jpeg'
p885
I1
sS'P002/Sadness/025.jpeg'
p886
I4
sS'P049/Fear/022.jpeg'
p887
I2
sS'P031/Surprise/015.jpeg'
p888
I5
sS'P030/Disgust/018.jpeg'
p889
I1
sS'P026/Sadness/022.jpeg'
p890
I4
sS'P023/Anger/022.jpeg'
p891
I0
sS'P035/Fear/042.jpeg'
p892
I2
sS'P001/Anger/014.jpeg'
p893
I0
sS'P002/Surprise/015.jpeg'
p894
I5
sS'P045/Fear/018.jpeg'
p895
I2
sS'P012/Happiness/016.jpeg'
p896
I3
sS'P001/Disgust/019.jpeg'
p897
I1
sS'P009/Surprise/020.jpeg'
p898
I5
sS'P044/Happiness/016.jpeg'
p899
I3
sS'P061/Fear/020.jpeg'
p900
I2
sS'P069/Sadness/020.jpeg'
p901
I4
sS'P045/Anger/020.jpeg'
p902
I0
sS'P001/Disgust/018.jpeg'
p903
I1
sS'P050/Surprise/019.jpeg'
p904
I5
sS'P063/Fear/017.jpeg'
p905
I2
sS'P032/Disgust/012.jpeg'
p906
I1
sS'P058/Happiness/016.jpeg'
p907
I3
sS'P061/Happiness/020.jpeg'
p908
I3
sS'P002/Surprise/016.jpeg'
p909
I5
sS'P015/Surprise/011.jpeg'
p910
I5
sS'P004/Happiness/011.jpeg'
p911
I3
sS'P070/Happiness/020.jpeg'
p912
I3
sS'P026/Disgust/018.jpeg'
p913
I1
sS'P058/Sadness/023.jpeg'
p914
I4
sS'P029/Anger/021.jpeg'
p915
I0
sS'P008/Anger/019.jpeg'
p916
I0
sS'P031/Disgust/013.jpeg'
p917
I1
sS'P003/Fear/012.jpeg'
p918
I2
sS'P049/Fear/024.jpeg'
p919
I2
sS'P004/Disgust/012.jpeg'
p920
I1
sS'P053/Sadness/015.jpeg'
p921
I4
sS'P071/Disgust/019.jpeg'
p922
I1
sS'P018/Surprise/019.jpeg'
p923
I5
sS'P052/Surprise/021.jpeg'
p924
I5
sS'P027/Disgust/022.jpeg'
p925
I1
sS'P069/Sadness/018.jpeg'
p926
I4
sS'P022/Surprise/017.jpeg'
p927
I5
sS'P052/Surprise/022.jpeg'
p928
I5
sS'P022/Disgust/019.jpeg'
p929
I1
sS'P056/Happiness/016.jpeg'
p930
I3
sS'P067/Anger/015.jpeg'
p931
I0
sS'P072/Disgust/018.jpeg'
p932
I1
sS'P018/Fear/019.jpeg'
p933
I2
sS'P009/Disgust/020.jpeg'
p934
I1
sS'P015/Fear/013.jpeg'
p935
I2
sS'P035/Fear/041.jpeg'
p936
I2
sS'P051/Disgust/019.jpeg'
p937
I1
sS'P040/Fear/018.jpeg'
p938
I2
sS'P063/Anger/021.jpeg'
p939
I0
sS'P056/Sadness/024.jpeg'
p940
I4
sS'P004/Surprise/016.jpeg'
p941
I5
sS'P013/Sadness/011.jpeg'
p942
I4
sS'P046/Sadness/023.jpeg'
p943
I4
sS'P008/Fear/012.jpeg'
p944
I2
sS'P053/Happiness/026.jpeg'
p945
I3
sS'P041/Disgust/015.jpeg'
p946
I1
sS'P016/Fear/025.jpeg'
p947
I2
sS'P001/Disgust/020.jpeg'
p948
I1
sS'P059/Sadness/015.jpeg'
p949
I4
sS'P051/Surprise/016.jpeg'
p950
I5
sS'P045/Disgust/022.jpeg'
p951
I1
sS'P011/Sadness/015.jpeg'
p952
I4
sS'P008/Happiness/018.jpeg'
p953
I3
sS'P059/Anger/015.jpeg'
p954
I0
sS'P022/Happiness/022.jpeg'
p955
I3
sS'P049/Surprise/021.jpeg'
p956
I5
sS'P060/Disgust/017.jpeg'
p957
I1
sS'P039/Disgust/021.jpeg'
p958
I1
sS'P025/Disgust/033.jpeg'
p959
I1
sS'P005/Disgust/018.jpeg'
p960
I1
sS'P062/Sadness/019.jpeg'
p961
I4
sS'P032/Anger/030.jpeg'
p962
I0
sS'P037/Fear/014.jpeg'
p963
I2
sS'P020/Sadness/020.jpeg'
p964
I4
sS'P052/Surprise/023.jpeg'
p965
I5
sS'P040/Happiness/019.jpeg'
p966
I3
sS'P006/Disgust/025.jpeg'
p967
I1
sS'P068/Sadness/016.jpeg'
p968
I4
sS'P072/Anger/022.jpeg'
p969
I0
sS'P070/Disgust/017.jpeg'
p970
I1
sS'P050/Anger/022.jpeg'
p971
I0
sS'P023/Fear/014.jpeg'
p972
I2
sS'P039/Anger/013.jpeg'
p973
I0
sS'P066/Happiness/022.jpeg'
p974
I3
sS'P005/Fear/020.jpeg'
p975
I2
sS'P037/Anger/017.jpeg'
p976
I0
sS'P043/Sadness/022.jpeg'
p977
I4
sS'P037/Disgust/014.jpeg'
p978
I1
sS'P006/Happiness/019.jpeg'
p979
I3
sS'P057/Anger/017.jpeg'
p980
I0
sS'P041/Fear/015.jpeg'
p981
I2
sS'P012/Sadness/020.jpeg'
p982
I4
sS'P033/Anger/022.jpeg'
p983
I0
sS'P040/Surprise/024.jpeg'
p984
I5
sS'P028/Surprise/016.jpeg'
p985
I5
sS'P034/Anger/025.jpeg'
p986
I0
sS'P015/Anger/021.jpeg'
p987
I0
sS'P009/Happiness/014.jpeg'
p988
I3
sS'P020/Surprise/022.jpeg'
p989
I5
sS'P044/Fear/021.jpeg'
p990
I2
sS'P072/Sadness/019.jpeg'
p991
I4
sS'P032/Surprise/019.jpeg'
p992
I5
sS'P058/Disgust/016.jpeg'
p993
I1
sS'P062/Surprise/021.jpeg'
p994
I5
sS'P072/Surprise/024.jpeg'
p995
I5
sS'P009/Surprise/019.jpeg'
p996
I5
sS'P018/Disgust/006.jpeg'
p997
I1
sS'P069/Sadness/019.jpeg'
p998
I4
sS'P067/Fear/016.jpeg'
p999
I2
sS'P054/Happiness/028.jpeg'
p1000
I3
sS'P068/Anger/022.jpeg'
p1001
I0
sS'P031/Disgust/011.jpeg'
p1002
I1
sS'P031/Fear/017.jpeg'
p1003
I2
sS'P022/Fear/025.jpeg'
p1004
I2
sS'P035/Anger/044.jpeg'
p1005
I0
sS'P001/Fear/016.jpeg'
p1006
I2
sS'P064/Happiness/020.jpeg'
p1007
I3
sS'P015/Surprise/009.jpeg'
p1008
I5
sS'P028/Anger/019.jpeg'
p1009
I0
sS'P013/Anger/018.jpeg'
p1010
I0
sS'P015/Fear/015.jpeg'
p1011
I2
sS'P038/Anger/018.jpeg'
p1012
I0
sS'P005/Anger/029.jpeg'
p1013
I0
sS'P040/Disgust/014.jpeg'
p1014
I1
sS'P028/Happiness/035.jpeg'
p1015
I3
sS'P019/Surprise/016.jpeg'
p1016
I5
sS'P069/Surprise/020.jpeg'
p1017
I5
sS'P040/Surprise/023.jpeg'
p1018
I5
sS'P044/Anger/019.jpeg'
p1019
I0
sS'P050/Disgust/023.jpeg'
p1020
I1
sS'P052/Sadness/017.jpeg'
p1021
I4
sS'P018/Sadness/010.jpeg'
p1022
I4
sS'P050/Sadness/029.jpeg'
p1023
I4
sS'P029/Fear/020.jpeg'
p1024
I2
sS'P044/Sadness/015.jpeg'
p1025
I4
sS'P054/Happiness/030.jpeg'
p1026
I3
sS'P053/Happiness/025.jpeg'
p1027
I3
sS'P008/Surprise/028.jpeg'
p1028
I5
sS'P038/Fear/017.jpeg'
p1029
I2
sS'P035/Surprise/016.jpeg'
p1030
I5
sS'P024/Disgust/025.jpeg'
p1031
I1
sS'P009/Fear/021.jpeg'
p1032
I2
sS'P059/Anger/014.jpeg'
p1033
I0
sS'P062/Happiness/015.jpeg'
p1034
I3
sS'P062/Anger/021.jpeg'
p1035
I0
sS'P030/Sadness/012.jpeg'
p1036
I4
sS'P023/Sadness/026.jpeg'
p1037
I4
sS'P058/Anger/018.jpeg'
p1038
I0
sS'P050/Surprise/021.jpeg'
p1039
I5
sS'P018/Anger/028.jpeg'
p1040
I0
sS'P027/Happiness/031.jpeg'
p1041
I3
sS'P047/Fear/023.jpeg'
p1042
I2
sS'P014/Happiness/015.jpeg'
p1043
I3
sS'P056/Disgust/022.jpeg'
p1044
I1
sS'P016/Fear/027.jpeg'
p1045
I2
sS'P031/Anger/018.jpeg'
p1046
I0
sS'P070/Fear/023.jpeg'
p1047
I2
sS'P023/Sadness/027.jpeg'
p1048
I4
sS'P042/Disgust/019.jpeg'
p1049
I1
sS'P036/Disgust/017.jpeg'
p1050
I1
sS'P028/Fear/032.jpeg'
p1051
I2
sS'P070/Sadness/018.jpeg'
p1052
I4
sS'P015/Happiness/016.jpeg'
p1053
I3
sS'P005/Surprise/014.jpeg'
p1054
I5
sS'P025/Happiness/030.jpeg'
p1055
I3
sS'P041/Happiness/024.jpeg'
p1056
I3
sS'P054/Surprise/015.jpeg'
p1057
I5
sS'P049/Sadness/023.jpeg'
p1058
I4
sS'P052/Disgust/017.jpeg'
p1059
I1
sS'P018/Happiness/030.jpeg'
p1060
I3
sS'P030/Anger/022.jpeg'
p1061
I0
sS'P064/Disgust/017.jpeg'
p1062
I1
sS'P069/Happiness/019.jpeg'
p1063
I3
sS'P048/Happiness/020.jpeg'
p1064
I3
sS'P055/Happiness/023.jpeg'
p1065
I3
sS'P019/Happiness/017.jpeg'
p1066
I3
sS'P042/Sadness/022.jpeg'
p1067
I4
sS'P069/Disgust/022.jpeg'
p1068
I1
sS'P012/Anger/016.jpeg'
p1069
I0
sS'P043/Surprise/024.jpeg'
p1070
I5
sS'P016/Sadness/012.jpeg'
p1071
I4
sS'P008/Sadness/025.jpeg'
p1072
I4
sS'P025/Surprise/022.jpeg'
p1073
I5
sS'P069/Anger/019.jpeg'
p1074
I0
sS'P065/Surprise/017.jpeg'
p1075
I5
sS'P006/Surprise/012.jpeg'
p1076
I5
sS'P067/Disgust/023.jpeg'
p1077
I1
sS'P009/Anger/025.jpeg'
p1078
I0
sS'P023/Anger/023.jpeg'
p1079
I0
sS'P068/Sadness/015.jpeg'
p1080
I4
sS'P012/Anger/017.jpeg'
p1081
I0
sS'P018/Sadness/012.jpeg'
p1082
I4
sS'P066/Fear/023.jpeg'
p1083
I2
sS'P044/Sadness/017.jpeg'
p1084
I4
sS'P019/Happiness/016.jpeg'
p1085
I3
sS'P051/Surprise/017.jpeg'
p1086
I5
sS'P061/Anger/016.jpeg'
p1087
I0
sS'P011/Surprise/015.jpeg'
p1088
I5
sS'P059/Fear/013.jpeg'
p1089
I2
sS'P066/Anger/020.jpeg'
p1090
I0
sS'P008/Fear/014.jpeg'
p1091
I2
sS'P056/Surprise/020.jpeg'
p1092
I5
sS'P057/Happiness/016.jpeg'
p1093
I3
sS'P044/Happiness/017.jpeg'
p1094
I3
sS'P009/Surprise/021.jpeg'
p1095
I5
sS'P004/Surprise/015.jpeg'
p1096
I5
sS'P057/Disgust/016.jpeg'
p1097
I1
sS'P053/Surprise/019.jpeg'
p1098
I5
sS'P033/Surprise/016.jpeg'
p1099
I5
sS'P053/Sadness/016.jpeg'
p1100
I4
sS'P039/Sadness/017.jpeg'
p1101
I4
sS'P021/Disgust/008.jpeg'
p1102
I1
sS'P059/Happiness/021.jpeg'
p1103
I3
sS'P016/Fear/026.jpeg'
p1104
I2
sS'P038/Disgust/008.jpeg'
p1105
I1
sS'P029/Sadness/010.jpeg'
p1106
I4
sS'P013/Fear/021.jpeg'
p1107
I2
sS'P072/Sadness/020.jpeg'
p1108
I4
sS'P063/Happiness/021.jpeg'
p1109
I3
sS'P038/Surprise/018.jpeg'
p1110
I5
sS'P054/Sadness/022.jpeg'
p1111
I4
sS'P059/Surprise/022.jpeg'
p1112
I5
sS'P014/Disgust/013.jpeg'
p1113
I1
sS'P005/Anger/030.jpeg'
p1114
I0
sS'P019/Surprise/014.jpeg'
p1115
I5
sS'P025/Sadness/031.jpeg'
p1116
I4
sS'P044/Surprise/019.jpeg'
p1117
I5
sS'P049/Fear/023.jpeg'
p1118
I2
sS'P046/Fear/018.jpeg'
p1119
I2
sS'P014/Sadness/031.jpeg'
p1120
I4
sS'P033/Sadness/014.jpeg'
p1121
I4
sS'P030/Anger/024.jpeg'
p1122
I0
sS'P013/Anger/017.jpeg'
p1123
I0
sS'P061/Surprise/017.jpeg'
p1124
I5
sS'P066/Happiness/024.jpeg'
p1125
I3
sS'P070/Sadness/020.jpeg'
p1126
I4
sS'P058/Anger/017.jpeg'
p1127
I0
sS'P042/Surprise/013.jpeg'
p1128
I5
sS'P065/Sadness/021.jpeg'
p1129
I4
sS'P006/Fear/023.jpeg'
p1130
I2
sS'P032/Surprise/018.jpeg'
p1131
I5
sS'P025/Anger/024.jpeg'
p1132
I0
sS'P017/Happiness/016.jpeg'
p1133
I3
sS'P065/Fear/016.jpeg'
p1134
I2
sS'P044/Fear/019.jpeg'
p1135
I2
sS'P011/Surprise/017.jpeg'
p1136
I5
sS'P042/Fear/019.jpeg'
p1137
I2
sS'P045/Disgust/021.jpeg'
p1138
I1
sS'P022/Disgust/020.jpeg'
p1139
I1
sS'P033/Anger/021.jpeg'
p1140
I0
sS'P025/Surprise/020.jpeg'
p1141
I5
sS'P011/Disgust/023.jpeg'
p1142
I1
sS'P067/Sadness/020.jpeg'
p1143
I4
sS'P030/Fear/021.jpeg'
p1144
I2
sS'P060/Disgust/018.jpeg'
p1145
I1
sS'P069/Surprise/021.jpeg'
p1146
I5
sS'P032/Happiness/020.jpeg'
p1147
I3
sS'P053/Happiness/024.jpeg'
p1148
I3
sS'P070/Disgust/016.jpeg'
p1149
I1
sS'P045/Surprise/019.jpeg'
p1150
I5
sS'P049/Happiness/022.jpeg'
p1151
I3
sS'P017/Happiness/017.jpeg'
p1152
I3
sS'P014/Happiness/017.jpeg'
p1153
I3
sS'P024/Happiness/022.jpeg'
p1154
I3
sS'P022/Happiness/023.jpeg'
p1155
I3
sS'P018/Happiness/029.jpeg'
p1156
I3
sS'P034/Sadness/016.jpeg'
p1157
I4
sS'P033/Disgust/017.jpeg'
p1158
I1
sS'P062/Happiness/017.jpeg'
p1159
I3
sS'P028/Happiness/033.jpeg'
p1160
I3
sS'P061/Happiness/019.jpeg'
p1161
I3
sS'P040/Sadness/006.jpeg'
p1162
I4
sS'P042/Fear/021.jpeg'
p1163
I2
sS'P058/Surprise/019.jpeg'
p1164
I5
sS'P068/Happiness/020.jpeg'
p1165
I3
sS'P012/Surprise/019.jpeg'
p1166
I5
sS'P037/Surprise/017.jpeg'
p1167
I5
sS'P037/Anger/018.jpeg'
p1168
I0
sS'P004/Fear/015.jpeg'
p1169
I2
sS'P003/Fear/010.jpeg'
p1170
I2
sS'P050/Surprise/020.jpeg'
p1171
I5
sS'P027/Fear/049.jpeg'
p1172
I2
sS'P009/Anger/024.jpeg'
p1173
I0
sS'P045/Surprise/018.jpeg'
p1174
I5
sS'P012/Disgust/014.jpeg'
p1175
I1
sS'P055/Fear/020.jpeg'
p1176
I2
sS'P005/Fear/021.jpeg'
p1177
I2
sS'P011/Happiness/020.jpeg'
p1178
I3
sS'P025/Disgust/035.jpeg'
p1179
I1
sS'P055/Disgust/021.jpeg'
p1180
I1
sS'P056/Fear/018.jpeg'
p1181
I2
sS'P052/Anger/020.jpeg'
p1182
I0
sS'P027/Fear/050.jpeg'
p1183
I2
sS'P023/Happiness/020.jpeg'
p1184
I3
sS'P046/Fear/019.jpeg'
p1185
I2
sS'P027/Sadness/021.jpeg'
p1186
I4
sS'P066/Disgust/022.jpeg'
p1187
I1
sS'P033/Surprise/014.jpeg'
p1188
I5
sS'P020/Anger/030.jpeg'
p1189
I0
sS'P048/Anger/015.jpeg'
p1190
I0
sS'P023/Sadness/028.jpeg'
p1191
I4
sS'P071/Fear/026.jpeg'
p1192
I2
sS'P022/Surprise/019.jpeg'
p1193
I5
sS'P071/Anger/019.jpeg'
p1194
I0
sS'P010/Fear/018.jpeg'
p1195
I2
sS'P070/Happiness/022.jpeg'
p1196
I3
sS'P053/Fear/013.jpeg'
p1197
I2
sS'P014/Disgust/015.jpeg'
p1198
I1
sS'P060/Fear/019.jpeg'
p1199
I2
sS'P065/Anger/018.jpeg'
p1200
I0
sS'P010/Sadness/011.jpeg'
p1201
I4
sS'P015/Anger/022.jpeg'
p1202
I0
sS'P020/Fear/023.jpeg'
p1203
I2
sS'P057/Anger/019.jpeg'
p1204
I0
sS'P002/Fear/014.jpeg'
p1205
I2
sS'P019/Sadness/009.jpeg'
p1206
I4
sS'P043/Disgust/021.jpeg'
p1207
I1
sS'P038/Sadness/022.jpeg'
p1208
I4
sS'P055/Anger/015.jpeg'
p1209
I0
sS'P063/Fear/016.jpeg'
p1210
I2
sS'P034/Sadness/018.jpeg'
p1211
I4
sS'P010/Happiness/010.jpeg'
p1212
I3
sS'P003/Surprise/010.jpeg'
p1213
I5
sS'P045/Surprise/017.jpeg'
p1214
I5
sS'P042/Happiness/017.jpeg'
p1215
I3
sS'P048/Happiness/019.jpeg'
p1216
I3
sS'P064/Sadness/025.jpeg'
p1217
I4
sS'P024/Surprise/020.jpeg'
p1218
I5
sS'P030/Sadness/013.jpeg'
p1219
I4
sS'P032/Happiness/018.jpeg'
p1220
I3
sS'P066/Surprise/022.jpeg'
p1221
I5
sS'P024/Fear/022.jpeg'
p1222
I2
sS'P058/Sadness/025.jpeg'
p1223
I4
sS'P052/Happiness/022.jpeg'
p1224
I3
sS'P037/Sadness/017.jpeg'
p1225
I4
sS'P044/Disgust/015.jpeg'
p1226
I1
sS'P040/Happiness/018.jpeg'
p1227
I3
sS'P019/Anger/019.jpeg'
p1228
I0
sS'P003/Surprise/011.jpeg'
p1229
I5
sS'P012/Sadness/018.jpeg'
p1230
I4
sS'P038/Disgust/009.jpeg'
p1231
I1
sS'P013/Sadness/012.jpeg'
p1232
I4
sS'P015/Fear/014.jpeg'
p1233
I2
sS'P016/Anger/032.jpeg'
p1234
I0
sS'P058/Sadness/024.jpeg'
p1235
I4
sS'P048/Fear/020.jpeg'
p1236
I2
sS'P060/Sadness/025.jpeg'
p1237
I4
sS'P008/Anger/017.jpeg'
p1238
I0
sS'P066/Sadness/022.jpeg'
p1239
I4
sS'P048/Disgust/017.jpeg'
p1240
I1
sS'P014/Anger/014.jpeg'
p1241
I0
sS'P041/Sadness/022.jpeg'
p1242
I4
sS'P045/Anger/022.jpeg'
p1243
I0
sS'P050/Sadness/027.jpeg'
p1244
I4
sS'P003/Happiness/011.jpeg'
p1245
I3
sS'P023/Surprise/022.jpeg'
p1246
I5
sS'P019/Disgust/009.jpeg'
p1247
I1
sS'P037/Disgust/013.jpeg'
p1248
I1
sS'P063/Sadness/023.jpeg'
p1249
I4
sS'P049/Sadness/024.jpeg'
p1250
I4
sS'P054/Happiness/029.jpeg'
p1251
I3
sS'P052/Disgust/018.jpeg'
p1252
I1
sS'P029/Anger/019.jpeg'
p1253
I0
sS'P022/Sadness/016.jpeg'
p1254
I4
sS'P063/Fear/018.jpeg'
p1255
I2
sS'P050/Fear/022.jpeg'
p1256
I2
sS'P072/Happiness/019.jpeg'
p1257
I3
sS'P009/Fear/022.jpeg'
p1258
I2
sS'P067/Sadness/018.jpeg'
p1259
I4
sS'P032/Anger/028.jpeg'
p1260
I0
sS'P035/Disgust/022.jpeg'
p1261
I1
sS'P030/Sadness/014.jpeg'
p1262
I4
sS'P059/Sadness/016.jpeg'
p1263
I4
sS'P057/Sadness/019.jpeg'
p1264
I4
sS'P068/Sadness/014.jpeg'
p1265
I4
sS'P040/Happiness/017.jpeg'
p1266
I3
sS'P054/Disgust/017.jpeg'
p1267
I1
sS'P057/Anger/018.jpeg'
p1268
I0
sS'P026/Fear/026.jpeg'
p1269
I2
sS'P007/Sadness/022.jpeg'
p1270
I4
sS'P026/Surprise/020.jpeg'
p1271
I5
sS'P034/Disgust/023.jpeg'
p1272
I1
sS'P066/Sadness/023.jpeg'
p1273
I4
sS'P021/Sadness/016.jpeg'
p1274
I4
sS'P016/Disgust/015.jpeg'
p1275
I1
sS'P039/Fear/016.jpeg'
p1276
I2
sS'P046/Surprise/016.jpeg'
p1277
I5
sS'P055/Sadness/023.jpeg'
p1278
I4
sS'P030/Fear/020.jpeg'
p1279
I2
sS'P019/Sadness/011.jpeg'
p1280
I4
sS'P046/Disgust/012.jpeg'
p1281
I1
sS'P043/Disgust/023.jpeg'
p1282
I1
sS'P055/Surprise/023.jpeg'
p1283
I5
sS'P034/Surprise/014.jpeg'
p1284
I5
sS'P050/Fear/021.jpeg'
p1285
I2
sS'P011/Anger/016.jpeg'
p1286
I0
sS'P041/Happiness/023.jpeg'
p1287
I3
sS'P002/Fear/016.jpeg'
p1288
I2
sS'P047/Fear/021.jpeg'
p1289
I2
sS'P042/Surprise/014.jpeg'
p1290
I5
sS'P071/Fear/024.jpeg'
p1291
I2
sS'P029/Disgust/016.jpeg'
p1292
I1
sS'P024/Surprise/022.jpeg'
p1293
I5
sS'P021/Surprise/009.jpeg'
p1294
I5
sS'P032/Surprise/017.jpeg'
p1295
I5
sS'P056/Happiness/018.jpeg'
p1296
I3
sS'P023/Fear/015.jpeg'
p1297
I2
sS'P036/Fear/021.jpeg'
p1298
I2
sS'P046/Disgust/013.jpeg'
p1299
I1
sS'P039/Surprise/020.jpeg'
p1300
I5
sS'P049/Anger/023.jpeg'
p1301
I0
sS'P030/Surprise/020.jpeg'
p1302
I5
sS'P059/Disgust/013.jpeg'
p1303
I1
sS'P033/Sadness/016.jpeg'
p1304
I4
sS'P026/Disgust/017.jpeg'
p1305
I1
sS'P033/Happiness/016.jpeg'
p1306
I3
sS'P004/Sadness/011.jpeg'
p1307
I4
sS'P068/Surprise/018.jpeg'
p1308
I5
sS'P057/Surprise/019.jpeg'
p1309
I5
sS'P067/Disgust/024.jpeg'
p1310
I1
sS'P021/Happiness/012.jpeg'
p1311
I3
sS'P050/Disgust/024.jpeg'
p1312
I1
sS'P067/Anger/016.jpeg'
p1313
I0
sS'P071/Surprise/020.jpeg'
p1314
I5
sS'P071/Anger/020.jpeg'
p1315
I0
sS'P067/Fear/018.jpeg'
p1316
I2
sS'P006/Sadness/015.jpeg'
p1317
I4
sS'P002/Anger/015.jpeg'
p1318
I0
sS'P060/Happiness/018.jpeg'
p1319
I3
sS'P047/Happiness/014.jpeg'
p1320
I3
sS'P003/Surprise/009.jpeg'
p1321
I5
sS'P048/Fear/022.jpeg'
p1322
I2
sS'P027/Disgust/021.jpeg'
p1323
I1
sS'P041/Disgust/013.jpeg'
p1324
I1
sS'P049/Disgust/011.jpeg'
p1325
I1
sS'P011/Fear/017.jpeg'
p1326
I2
sS'P002/Happiness/014.jpeg'
p1327
I3
sS'P018/Surprise/020.jpeg'
p1328
I5
sS'P018/Anger/027.jpeg'
p1329
I0
sS'P041/Sadness/020.jpeg'
p1330
I4
sS'P031/Sadness/011.jpeg'
p1331
I4
sS'P068/Fear/019.jpeg'
p1332
I2
sS'P061/Sadness/019.jpeg'
p1333
I4
sS'P023/Happiness/022.jpeg'
p1334
I3
sS'P021/Sadness/014.jpeg'
p1335
I4
sS'P052/Fear/026.jpeg'
p1336
I2
sS'P049/Surprise/023.jpeg'
p1337
I5
sS'P011/Disgust/024.jpeg'
p1338
I1
sS'P043/Fear/022.jpeg'
p1339
I2
sS'P062/Happiness/016.jpeg'
p1340
I3
sS'P036/Happiness/021.jpeg'
p1341
I3
sS'P032/Sadness/011.jpeg'
p1342
I4
sS'P050/Fear/023.jpeg'
p1343
I2
sS'P048/Disgust/016.jpeg'
p1344
I1
sS'P071/Surprise/018.jpeg'
p1345
I5
sS'P003/Sadness/014.jpeg'
p1346
I4
sS'P012/Happiness/015.jpeg'
p1347
I3
sS'P007/Happiness/033.jpeg'
p1348
I3
sS'P020/Disgust/026.jpeg'
p1349
I1
sS'P010/Anger/019.jpeg'
p1350
I0
sS'P026/Anger/018.jpeg'
p1351
I0
sS'P013/Anger/019.jpeg'
p1352
I0
sS'P040/Disgust/015.jpeg'
p1353
I1
sS'P038/Surprise/016.jpeg'
p1354
I5
sS'P051/Happiness/022.jpeg'
p1355
I3
sS'P013/Happiness/010.jpeg'
p1356
I3
sS'P056/Anger/016.jpeg'
p1357
I0
sS'P066/Disgust/021.jpeg'
p1358
I1
sS'P007/Fear/020.jpeg'
p1359
I2
sS'P037/Surprise/018.jpeg'
p1360
I5
sS'P054/Anger/018.jpeg'
p1361
I0
sS'P029/Happiness/018.jpeg'
p1362
I3
sS'P054/Disgust/015.jpeg'
p1363
I1
sS'P064/Surprise/020.jpeg'
p1364
I5
sS'P055/Surprise/021.jpeg'
p1365
I5
sS'P063/Sadness/021.jpeg'
p1366
I4
sS'P043/Anger/023.jpeg'
p1367
I0
sS'P034/Surprise/015.jpeg'
p1368
I5
sS'P055/Happiness/021.jpeg'
p1369
I3
sS'P036/Sadness/018.jpeg'
p1370
I4
sS'P068/Disgust/018.jpeg'
p1371
I1
sS'P060/Sadness/024.jpeg'
p1372
I4
sS'P047/Surprise/023.jpeg'
p1373
I5
sS'P017/Sadness/016.jpeg'
p1374
I4
sS'P072/Happiness/020.jpeg'
p1375
I3
sS'P019/Fear/019.jpeg'
p1376
I2
sS'P020/Happiness/030.jpeg'
p1377
I3
sS'P037/Happiness/017.jpeg'
p1378
I3
sS'P060/Happiness/019.jpeg'
p1379
I3
sS'P002/Disgust/015.jpeg'
p1380
I1
sS'P060/Surprise/021.jpeg'
p1381
I5
sS'P068/Anger/023.jpeg'
p1382
I0
sS'P017/Anger/015.jpeg'
p1383
I0
sS'P071/Disgust/018.jpeg'
p1384
I1
sS'P043/Surprise/023.jpeg'
p1385
I5
sS'P066/Anger/021.jpeg'
p1386
I0
sS'P065/Fear/015.jpeg'
p1387
I2
sS'P064/Anger/019.jpeg'
p1388
I0
sS'P008/Anger/018.jpeg'
p1389
I0
sS'P025/Happiness/029.jpeg'
p1390
I3
sS'P045/Disgust/020.jpeg'
p1391
I1
sS'P001/Surprise/024.jpeg'
p1392
I5
sS'P007/Anger/070.jpeg'
p1393
I0
sS'P049/Anger/024.jpeg'
p1394
I0
sS'P035/Anger/045.jpeg'
p1395
I0
sS'P006/Fear/022.jpeg'
p1396
I2
sS'P009/Happiness/016.jpeg'
p1397
I3
sS'P053/Anger/014.jpeg'
p1398
I0
sS'P069/Fear/021.jpeg'
p1399
I2
sS'P027/Fear/051.jpeg'
p1400
I2
sS'P037/Fear/015.jpeg'
p1401
I2
sS'P072/Disgust/019.jpeg'
p1402
I1
sS'P042/Disgust/017.jpeg'
p1403
I1
sS'P023/Disgust/038.jpeg'
p1404
I1
sS'P024/Happiness/023.jpeg'
p1405
I3
sS'P034/Sadness/017.jpeg'
p1406
I4
sS'P057/Surprise/021.jpeg'
p1407
I5
sS'P062/Surprise/022.jpeg'
p1408
I5
sS'P060/Happiness/020.jpeg'
p1409
I3
sS'P051/Anger/013.jpeg'
p1410
I0
sS'P046/Happiness/018.jpeg'
p1411
I3
sS'P047/Happiness/012.jpeg'
p1412
I3
sS'P004/Happiness/012.jpeg'
p1413
I3
sS'P024/Anger/022.jpeg'
p1414
I0
sS'P046/Happiness/019.jpeg'
p1415
I3
sS'P029/Surprise/037.jpeg'
p1416
I5
sS'P047/Fear/022.jpeg'
p1417
I2
sS'P061/Fear/021.jpeg'
p1418
I2
sS'P008/Fear/013.jpeg'
p1419
I2
sS'P037/Sadness/016.jpeg'
p1420
I4
sS'P010/Disgust/012.jpeg'
p1421
I1
sS'P004/Disgust/013.jpeg'
p1422
I1
sS'P049/Happiness/020.jpeg'
p1423
I3
sS'P041/Disgust/014.jpeg'
p1424
I1
sS'P013/Surprise/019.jpeg'
p1425
I5
sS'P043/Happiness/023.jpeg'
p1426
I3
sS'P024/Surprise/021.jpeg'
p1427
I5
sS'P034/Disgust/024.jpeg'
p1428
I1
sS'P033/Fear/015.jpeg'
p1429
I2
sS'P070/Fear/021.jpeg'
p1430
I2
sS'P045/Happiness/031.jpeg'
p1431
I3
sS'P048/Surprise/025.jpeg'
p1432
I5
sS'P063/Anger/022.jpeg'
p1433
I0
sS'P057/Happiness/015.jpeg'
p1434
I3
sS'P044/Anger/021.jpeg'
p1435
I0
sS'P014/Sadness/029.jpeg'
p1436
I4
sS'P003/Anger/020.jpeg'
p1437
I0
sS'P070/Happiness/021.jpeg'
p1438
I3
sS'P036/Fear/019.jpeg'
p1439
I2
sS'P067/Happiness/025.jpeg'
p1440
I3
sS'P017/Surprise/015.jpeg'
p1441
I5
sS'P028/Anger/018.jpeg'
p1442
I0
sS'P070/Sadness/019.jpeg'
p1443
I4
sS'P064/Fear/016.jpeg'
p1444
I2
ss.